target datalayout = "e-m:e-p270:32:32-p271:32:32-p272:64:64-i64:64-i128:128-f80:128-n8:16:32:64-S128"
target triple = "x86_64-pc-linux-gnu"

%struct._cmstransform_struct = type { i32, i32, ptr, ptr, ptr, ptr, ptr, %struct._cmsCACHE, ptr, ptr, ptr, ptr, i32, i32, %struct.cmsCIEXYZ, %struct.cmsCIEXYZ, ptr, i32, double, i32, ptr, ptr, ptr, ptr, ptr, i32, i32 }
%struct._cmsCACHE = type { [16 x i16], [16 x i16] }
%struct.cmsCIEXYZ = type { double, double, double }

; Function Attrs: nounwind uwtable
define internal i32 @_cmsToFixedDomain(i32 noundef %0) #0 {
  %2 = alloca i32, align 4
  store i32 %0, ptr %2, align 4
  %3 = load i32, ptr %2, align 4
  %4 = load i32, ptr %2, align 4
  %5 = add nsw i32 %4, 32767
  %6 = sdiv i32 %5, 65535
  %7 = add nsw i32 %3, %6
  ret i32 %7
}

; Function Attrs: nounwind uwtable
define internal ptr @PackChunkyBytes(ptr noundef %0, ptr noundef %1, ptr noundef %2, i32 noundef %3) #0 {
  %5 = alloca ptr, align 8
  %6 = alloca ptr, align 8
  %7 = alloca ptr, align 8
  %8 = alloca i32, align 4
  %9 = alloca i32, align 4
  %10 = alloca i32, align 4
  %11 = alloca i32, align 4
  %12 = alloca i32, align 4
  %13 = alloca i32, align 4
  %14 = alloca i32, align 4
  %15 = alloca i32, align 4
  %16 = alloca ptr, align 8
  %17 = alloca i16, align 2
  %18 = alloca i32, align 4
  %19 = alloca i32, align 4
  %20 = alloca i32, align 4
  store ptr %0, ptr %5, align 8
  store ptr %1, ptr %6, align 8
  store ptr %2, ptr %7, align 8
  store i32 %3, ptr %8, align 4
  %21 = load ptr, ptr %5, align 8
  %22 = getelementptr inbounds %struct._cmstransform_struct, ptr %21, i32 0, i32 1
  %23 = load i32, ptr %22, align 4
  %24 = lshr i32 %23, 3
  %25 = and i32 %24, 15
  store i32 %25, ptr %9, align 4
  %26 = load ptr, ptr %5, align 8
  %27 = getelementptr inbounds %struct._cmstransform_struct, ptr %26, i32 0, i32 1
  %28 = load i32, ptr %27, align 4
  %29 = lshr i32 %28, 10
  %30 = and i32 %29, 1
  store i32 %30, ptr %10, align 4
  %31 = load ptr, ptr %5, align 8
  %32 = getelementptr inbounds %struct._cmstransform_struct, ptr %31, i32 0, i32 1
  %33 = load i32, ptr %32, align 4
  %34 = lshr i32 %33, 13
  %35 = and i32 %34, 1
  store i32 %35, ptr %11, align 4
  %36 = load ptr, ptr %5, align 8
  %37 = getelementptr inbounds %struct._cmstransform_struct, ptr %36, i32 0, i32 1
  %38 = load i32, ptr %37, align 4
  %39 = lshr i32 %38, 7
  %40 = and i32 %39, 7
  store i32 %40, ptr %12, align 4
  %41 = load ptr, ptr %5, align 8
  %42 = getelementptr inbounds %struct._cmstransform_struct, ptr %41, i32 0, i32 1
  %43 = load i32, ptr %42, align 4
  %44 = lshr i32 %43, 14
  %45 = and i32 %44, 1
  store i32 %45, ptr %13, align 4
  %46 = load ptr, ptr %5, align 8
  %47 = getelementptr inbounds %struct._cmstransform_struct, ptr %46, i32 0, i32 1
  %48 = load i32, ptr %47, align 4
  %49 = lshr i32 %48, 23
  %50 = and i32 %49, 1
  store i32 %50, ptr %14, align 4
  %51 = load i32, ptr %10, align 4
  %52 = load i32, ptr %13, align 4
  %53 = xor i32 %51, %52
  store i32 %53, ptr %15, align 4
  store i16 0, ptr %17, align 2
  store i32 0, ptr %19, align 4
  %54 = load ptr, ptr %7, align 8
  store ptr %54, ptr %16, align 8
  %55 = load i32, ptr %15, align 4
  %56 = icmp ne i32 %55, 0
  br i1 %56, label %57, label %83

57:                                               ; preds = %4
  %58 = load i32, ptr %14, align 4
  %59 = icmp ne i32 %58, 0
  br i1 %59, label %60, label %78

60:                                               ; preds = %57
  %61 = load i32, ptr %12, align 4
  %62 = icmp ne i32 %61, 0
  br i1 %62, label %63, label %78

63:                                               ; preds = %60
  %64 = load ptr, ptr %7, align 8
  %65 = getelementptr inbounds i8, ptr %64, i64 0
  %66 = load i8, ptr %65, align 1
  %67 = zext i8 %66 to i16
  %68 = zext i16 %67 to i32
  %69 = shl i32 %68, 8
  %70 = load ptr, ptr %7, align 8
  %71 = getelementptr inbounds i8, ptr %70, i64 0
  %72 = load i8, ptr %71, align 1
  %73 = zext i8 %72 to i32
  %74 = or i32 %69, %73
  %75 = trunc i32 %74 to i16
  %76 = zext i16 %75 to i32
  %77 = call i32 @_cmsToFixedDomain(i32 noundef %76)
  store i32 %77, ptr %19, align 4
  br label %78

78:                                               ; preds = %63, %60, %57
  %79 = load i32, ptr %12, align 4
  %80 = load ptr, ptr %7, align 8
  %81 = zext i32 %79 to i64
  %82 = getelementptr inbounds i8, ptr %80, i64 %81
  store ptr %82, ptr %7, align 8
  br label %109

83:                                               ; preds = %4
  %84 = load i32, ptr %14, align 4
  %85 = icmp ne i32 %84, 0
  br i1 %85, label %86, label %108

86:                                               ; preds = %83
  %87 = load i32, ptr %12, align 4
  %88 = icmp ne i32 %87, 0
  br i1 %88, label %89, label %108

89:                                               ; preds = %86
  %90 = load ptr, ptr %7, align 8
  %91 = load i32, ptr %9, align 4
  %92 = zext i32 %91 to i64
  %93 = getelementptr inbounds i8, ptr %90, i64 %92
  %94 = load i8, ptr %93, align 1
  %95 = zext i8 %94 to i16
  %96 = zext i16 %95 to i32
  %97 = shl i32 %96, 8
  %98 = load ptr, ptr %7, align 8
  %99 = load i32, ptr %9, align 4
  %100 = zext i32 %99 to i64
  %101 = getelementptr inbounds i8, ptr %98, i64 %100
  %102 = load i8, ptr %101, align 1
  %103 = zext i8 %102 to i32
  %104 = or i32 %97, %103
  %105 = trunc i32 %104 to i16
  %106 = zext i16 %105 to i32
  %107 = call i32 @_cmsToFixedDomain(i32 noundef %106)
  store i32 %107, ptr %19, align 4
  br label %108

108:                                              ; preds = %89, %86, %83
  br label %109

109:                                              ; preds = %108, %78
  store i32 0, ptr %18, align 4
  br label %110

110:                                              ; preds = %159, %109
  %111 = load i32, ptr %18, align 4
  %112 = load i32, ptr %9, align 4
  %113 = icmp ult i32 %111, %112
  br i1 %113, label %114, label %162

114:                                              ; preds = %110
  %115 = load i32, ptr %10, align 4
  %116 = icmp ne i32 %115, 0
  br i1 %116, label %117, label %122

117:                                              ; preds = %114
  %118 = load i32, ptr %9, align 4
  %119 = load i32, ptr %18, align 4
  %120 = sub i32 %118, %119
  %121 = sub i32 %120, 1
  br label %124

122:                                              ; preds = %114
  %123 = load i32, ptr %18, align 4
  br label %124

124:                                              ; preds = %122, %117
  %125 = phi i32 [ %121, %117 ], [ %123, %122 ]
  store i32 %125, ptr %20, align 4
  %126 = load ptr, ptr %6, align 8
  %127 = load i32, ptr %20, align 4
  %128 = zext i32 %127 to i64
  %129 = getelementptr inbounds i16, ptr %126, i64 %128
  %130 = load i16, ptr %129, align 2
  store i16 %130, ptr %17, align 2
  %131 = load i32, ptr %11, align 4
  %132 = icmp ne i32 %131, 0
  br i1 %132, label %133, label %138

133:                                              ; preds = %124
  %134 = load i16, ptr %17, align 2
  %135 = zext i16 %134 to i32
  %136 = sub nsw i32 65535, %135
  %137 = trunc i32 %136 to i16
  store i16 %137, ptr %17, align 2
  br label %138

138:                                              ; preds = %133, %124
  %139 = load i32, ptr %14, align 4
  %140 = icmp ne i32 %139, 0
  br i1 %140, label %141, label %149

141:                                              ; preds = %138
  %142 = load i16, ptr %17, align 2
  %143 = zext i16 %142 to i32
  %144 = load i32, ptr %19, align 4
  %145 = mul i32 %143, %144
  %146 = add i32 %145, 32768
  %147 = lshr i32 %146, 16
  %148 = trunc i32 %147 to i16
  store i16 %148, ptr %17, align 2
  br label %149

149:                                              ; preds = %141, %138
  %150 = load i16, ptr %17, align 2
  %151 = zext i16 %150 to i32
  %152 = mul i32 %151, 65281
  %153 = add i32 %152, 8388608
  %154 = lshr i32 %153, 24
  %155 = and i32 %154, 255
  %156 = trunc i32 %155 to i8
  %157 = load ptr, ptr %7, align 8
  %158 = getelementptr inbounds i8, ptr %157, i32 1
  store ptr %158, ptr %7, align 8
  store i8 %156, ptr %157, align 1
  br label %159

159:                                              ; preds = %149
  %160 = load i32, ptr %18, align 4
  %161 = add i32 %160, 1
  store i32 %161, ptr %18, align 4
  br label %110, !llvm.loop !27

162:                                              ; preds = %110
  %163 = load i32, ptr %15, align 4
  %164 = icmp ne i32 %163, 0
  br i1 %164, label %170, label %165

165:                                              ; preds = %162
  %166 = load i32, ptr %12, align 4
  %167 = load ptr, ptr %7, align 8
  %168 = zext i32 %166 to i64
  %169 = getelementptr inbounds i8, ptr %167, i64 %168
  store ptr %169, ptr %7, align 8
  br label %170

170:                                              ; preds = %165, %162
  %171 = load i32, ptr %12, align 4
  %172 = icmp eq i32 %171, 0
  br i1 %172, label %173, label %191

173:                                              ; preds = %170
  %174 = load i32, ptr %13, align 4
  %175 = icmp ne i32 %174, 0
  br i1 %175, label %176, label %191

176:                                              ; preds = %173
  %177 = load ptr, ptr %16, align 8
  %178 = getelementptr inbounds i8, ptr %177, i64 1
  %179 = load ptr, ptr %16, align 8
  %180 = load i32, ptr %9, align 4
  %181 = sub i32 %180, 1
  %182 = zext i32 %181 to i64
  call void @llvm.memmove.p0.p0.i64(ptr align 1 %178, ptr align 1 %179, i64 %182, i1 false)
  %183 = load i16, ptr %17, align 2
  %184 = zext i16 %183 to i32
  %185 = mul i32 %184, 65281
  %186 = add i32 %185, 8388608
  %187 = lshr i32 %186, 24
  %188 = and i32 %187, 255
  %189 = trunc i32 %188 to i8
  %190 = load ptr, ptr %16, align 8
  store i8 %189, ptr %190, align 1
  br label %191

191:                                              ; preds = %176, %173, %170
  %192 = load ptr, ptr %7, align 8
  ret ptr %192
}