; Function Attrs: nofree norecurse nosync nounwind memory(write, argmem: readwrite, inaccessiblemem: none) uwtable
define internal ptr @PackChunkyBytes(ptr nocapture noundef readonly %0, ptr nocapture noundef readonly %1, ptr noundef %2, i32 %3) #8 {
  %5 = getelementptr inbounds i8, ptr %0, i64 4
  %6 = load i32, ptr %5, align 4
  %.fr = freeze i32 %6
  %7 = lshr i32 %.fr, 3
  %8 = and i32 %7, 15
  %9 = lshr i32 %.fr, 10
  %10 = and i32 %9, 1
  %11 = lshr i32 %.fr, 7
  %12 = and i32 %11, 7
  %13 = lshr i32 %.fr, 14
  %14 = and i32 %13, 1
  %15 = lshr i32 %.fr, 23
  %16 = and i32 %15, 1
  %.not = icmp eq i32 %10, %14
  %17 = icmp ne i32 %16, 0
  %18 = icmp ne i32 %12, 0
  %or.cond3 = and i1 %17, %18
  br i1 %.not, label %30, label %19

19:                                               ; preds = %4
  br i1 %or.cond3, label %20, label %27

20:                                               ; preds = %19
  %21 = load i8, ptr %2, align 1
  %22 = zext i8 %21 to i32
  %23 = shl nuw nsw i32 %22, 8
  %24 = or disjoint i32 %23, %22
  %.lobit = lshr i8 %21, 7
  %25 = zext nneg i8 %.lobit to i32
  %26 = add nuw nsw i32 %24, %25
  br label %27

27:                                               ; preds = %20, %19
  %.053 = phi i32 [ %26, %20 ], [ 0, %19 ]
  %28 = zext nneg i32 %12 to i64
  %29 = getelementptr inbounds i8, ptr %2, i64 %28
  br label %40

30:                                               ; preds = %4
  br i1 %or.cond3, label %31, label %40

31:                                               ; preds = %30
  %32 = zext nneg i32 %8 to i64
  %33 = getelementptr inbounds i8, ptr %2, i64 %32
  %34 = load i8, ptr %33, align 1
  %35 = zext i8 %34 to i32
  %36 = shl nuw nsw i32 %35, 8
  %37 = or disjoint i32 %36, %35
  %.lobit65 = lshr i8 %34, 7
  %38 = zext nneg i8 %.lobit65 to i32
  %39 = add nuw nsw i32 %37, %38
  br label %40

40:                                               ; preds = %30, %31, %27
  %.154 = phi i32 [ %.053, %27 ], [ %39, %31 ], [ 0, %30 ]
  %.0 = phi ptr [ %29, %27 ], [ %2, %31 ], [ %2, %30 ]
  %.not81 = icmp eq i32 %8, 0
  br i1 %.not81, label %._crit_edge, label %.lr.ph

.lr.ph:                                           ; preds = %40
  %.not61 = icmp eq i32 %10, 0
  %41 = shl i32 %.fr, 18
  %sext = ashr i32 %41, 31
  %42 = trunc nsw i32 %sext to i16
  %.not63 = icmp eq i32 %16, 0
  %wide.trip.count105 = zext nneg i32 %8 to i64
  br i1 %.not61, label %.lr.ph.split.us, label %.lr.ph.split

.lr.ph.split.us:                                  ; preds = %.lr.ph
  br i1 %.not63, label %.lr.ph.split.us.split.us, label %.lr.ph.split.us.split

.lr.ph.split.us.split.us:                         ; preds = %.lr.ph.split.us, %.lr.ph.split.us.split.us
  %indvars.iv102 = phi i64 [ %indvars.iv.next103, %.lr.ph.split.us.split.us ], [ 0, %.lr.ph.split.us ]
  %.167.us.us = phi ptr [ %50, %.lr.ph.split.us.split.us ], [ %.0, %.lr.ph.split.us ]
  %43 = getelementptr inbounds i16, ptr %1, i64 %indvars.iv102
  %44 = load i16, ptr %43, align 2
  %.157.us.us = xor i16 %44, %42
  %45 = zext i16 %.157.us.us to i32
  %46 = mul nuw i32 %45, 65281
  %47 = add nuw i32 %46, 8388608
  %48 = lshr i32 %47, 24
  %49 = trunc nuw i32 %48 to i8
  %50 = getelementptr inbounds i8, ptr %.167.us.us, i64 1
  store i8 %49, ptr %.167.us.us, align 1
  %indvars.iv.next103 = add nuw nsw i64 %indvars.iv102, 1
  %exitcond106.not = icmp eq i64 %indvars.iv.next103, %wide.trip.count105
  br i1 %exitcond106.not, label %._crit_edge, label %.lr.ph.split.us.split.us, !llvm.loop !27

.lr.ph.split.us.split:                            ; preds = %.lr.ph.split.us, %.lr.ph.split.us.split
  %indvars.iv97 = phi i64 [ %indvars.iv.next98, %.lr.ph.split.us.split ], [ 0, %.lr.ph.split.us ]
  %.167.us = phi ptr [ %61, %.lr.ph.split.us.split ], [ %.0, %.lr.ph.split.us ]
  %51 = getelementptr inbounds i16, ptr %1, i64 %indvars.iv97
  %52 = load i16, ptr %51, align 2
  %.157.us = xor i16 %52, %42
  %53 = zext i16 %.157.us to i32
  %54 = mul nuw i32 %.154, %53
  %55 = add nuw i32 %54, 32768
  %56 = lshr i32 %55, 16
  %57 = mul nuw i32 %56, 65281
  %58 = add nuw i32 %57, 8388608
  %59 = lshr i32 %58, 24
  %60 = trunc nuw i32 %59 to i8
  %61 = getelementptr inbounds i8, ptr %.167.us, i64 1
  store i8 %60, ptr %.167.us, align 1
  %indvars.iv.next98 = add nuw nsw i64 %indvars.iv97, 1
  %exitcond101.not = icmp eq i64 %indvars.iv.next98, %wide.trip.count105
  br i1 %exitcond101.not, label %._crit_edge.loopexit83, label %.lr.ph.split.us.split, !llvm.loop !27

.lr.ph.split:                                     ; preds = %.lr.ph
  br i1 %.not63, label %.lr.ph.split.split.us, label %.lr.ph.split.split

.lr.ph.split.split.us:                            ; preds = %.lr.ph.split, %.lr.ph.split.split.us
  %indvars.iv92 = phi i64 [ %indvars.iv.next93, %.lr.ph.split.split.us ], [ 0, %.lr.ph.split ]
  %.167.us70 = phi ptr [ %73, %.lr.ph.split.split.us ], [ %.0, %.lr.ph.split ]
  %62 = trunc nuw nsw i64 %indvars.iv92 to i32
  %63 = xor i32 %62, -1
  %64 = add nsw i32 %8, %63
  %65 = zext i32 %64 to i64
  %66 = getelementptr inbounds i16, ptr %1, i64 %65
  %67 = load i16, ptr %66, align 2
  %.157.us72 = xor i16 %67, %42
  %68 = zext i16 %.157.us72 to i32
  %69 = mul nuw i32 %68, 65281
  %70 = add nuw i32 %69, 8388608
  %71 = lshr i32 %70, 24
  %72 = trunc nuw i32 %71 to i8
  %73 = getelementptr inbounds i8, ptr %.167.us70, i64 1
  store i8 %72, ptr %.167.us70, align 1
  %indvars.iv.next93 = add nuw nsw i64 %indvars.iv92, 1
  %exitcond96.not = icmp eq i64 %indvars.iv.next93, %wide.trip.count105
  br i1 %exitcond96.not, label %._crit_edge, label %.lr.ph.split.split.us, !llvm.loop !27

.lr.ph.split.split:                               ; preds = %.lr.ph.split, %.lr.ph.split.split
  %indvars.iv = phi i64 [ %indvars.iv.next, %.lr.ph.split.split ], [ 0, %.lr.ph.split ]
  %.167 = phi ptr [ %88, %.lr.ph.split.split ], [ %.0, %.lr.ph.split ]
  %74 = trunc nuw nsw i64 %indvars.iv to i32
  %75 = xor i32 %74, -1
  %76 = add nsw i32 %8, %75
  %77 = zext i32 %76 to i64
  %78 = getelementptr inbounds i16, ptr %1, i64 %77
  %79 = load i16, ptr %78, align 2
  %.157 = xor i16 %79, %42
  %80 = zext i16 %.157 to i32
  %81 = mul nuw i32 %.154, %80
  %82 = add nuw i32 %81, 32768
  %83 = lshr i32 %82, 16
  %84 = mul nuw i32 %83, 65281
  %85 = add nuw i32 %84, 8388608
  %86 = lshr i32 %85, 24
  %87 = trunc nuw i32 %86 to i8
  %88 = getelementptr inbounds i8, ptr %.167, i64 1
  store i8 %87, ptr %.167, align 1
  %indvars.iv.next = add nuw nsw i64 %indvars.iv, 1
  %exitcond.not = icmp eq i64 %indvars.iv.next, %wide.trip.count105
  br i1 %exitcond.not, label %._crit_edge.loopexit85, label %.lr.ph.split.split, !llvm.loop !27

._crit_edge.loopexit83:                           ; preds = %.lr.ph.split.us.split
  %89 = trunc nuw i32 %56 to i16
  br label %._crit_edge

._crit_edge.loopexit85:                           ; preds = %.lr.ph.split.split
  %90 = trunc nuw i32 %83 to i16
  br label %._crit_edge

._crit_edge:                                      ; preds = %.lr.ph.split.split.us, %.lr.ph.split.us.split.us, %._crit_edge.loopexit85, %._crit_edge.loopexit83, %40
  %.056.lcssa = phi i16 [ 0, %40 ], [ %89, %._crit_edge.loopexit83 ], [ %90, %._crit_edge.loopexit85 ], [ %.157.us.us, %.lr.ph.split.us.split.us ], [ %.157.us72, %.lr.ph.split.split.us ]
  %.1.lcssa = phi ptr [ %.0, %40 ], [ %61, %._crit_edge.loopexit83 ], [ %88, %._crit_edge.loopexit85 ], [ %50, %.lr.ph.split.us.split.us ], [ %73, %.lr.ph.split.split.us ]
  %91 = icmp eq i32 %12, 0
  %92 = icmp ne i32 %14, 0
  %or.cond5 = and i1 %91, %92
  br i1 %or.cond5, label %93, label %102

93:                                               ; preds = %._crit_edge
  %94 = getelementptr inbounds i8, ptr %2, i64 1
  %95 = add nsw i32 %8, -1
  %96 = zext i32 %95 to i64
  tail call void @llvm.memmove.p0.p0.i64(ptr nonnull align 1 %94, ptr align 1 %2, i64 %96, i1 false)
  %97 = zext i16 %.056.lcssa to i32
  %98 = mul nuw i32 %97, 65281
  %99 = add nuw i32 %98, 8388608
  %100 = lshr i32 %99, 24
  %101 = trunc nuw i32 %100 to i8
  store i8 %101, ptr %2, align 1
  br label %102

102:                                              ; preds = %93, %._crit_edge
  %narrow = select i1 %.not, i32 %12, i32 0
  %.2.idx = zext nneg i32 %narrow to i64
  %.2 = getelementptr inbounds i8, ptr %.1.lcssa, i64 %.2.idx
  ret ptr %.2
}